target datalayout = "e-m:e-p270:32:32-p271:32:32-p272:64:64-i64:64-i128:128-f80:128-n8:16:32:64-S128"
target triple = "x86_64-pc-linux-gnu"

@proto_register_ptpip.ett = internal global [2 x ptr] [ptr @ett_ptpIP, ptr @ett_ptpIP_hdr], align 16
@.str.28 = private unnamed_addr constant [34 x i8] c"Picture Transfer Protocol Over IP\00", align 1
@.str.29 = private unnamed_addr constant [7 x i8] c"PTP/IP\00", align 1
@.str.30 = private unnamed_addr constant [6 x i8] c"ptpip\00", align 1
@proto_ptpIP = internal global i32 0, align 4
@ptpIP_handle = internal global ptr null, align 8
@.str.31 = private unnamed_addr constant [7 x i8] c"vendor\00", align 1
@.str.32 = private unnamed_addr constant [14 x i8] c"Camera vendor\00", align 1
@.str.33 = private unnamed_addr constant [44 x i8] c"Properly translates vendor specific opcodes\00", align 1
@pref_vendor = internal global i32 0, align 4

; Function Attrs: null_pointer_is_valid sspstrong uwtable
define hidden void @proto_register_ptpip() #0 {
  %1 = alloca ptr, align 8
  call void @llvm.lifetime.start.p0(i64 8, ptr %1) #4
  %2 = call i32 @proto_register_protocol(ptr noundef @.str.28, ptr noundef @.str.29, ptr noundef @.str.30)
  store i32 %2, ptr @proto_ptpIP, align 4
  %3 = load i32, ptr @proto_ptpIP, align 4
  call void @proto_register_field_array(i32 noundef %3, ptr noundef @proto_register_ptpip.hf, i32 noundef 14)
  call void @proto_register_subtree_array(ptr noundef @proto_register_ptpip.ett, i32 noundef 2)
  %4 = load i32, ptr @proto_ptpIP, align 4
  %5 = call ptr @register_dissector(ptr noundef @.str.30, ptr noundef @dissect_ptpIP, i32 noundef %4)
  store ptr %5, ptr @ptpIP_handle, align 8
  %6 = load i32, ptr @proto_ptpIP, align 4
  %7 = call ptr @prefs_register_protocol(i32 noundef %6, ptr noundef null)
  store ptr %7, ptr %1, align 8
  %8 = load ptr, ptr %1, align 8
  call void @prefs_register_enum_preference(ptr noundef %8, ptr noundef @.str.31, ptr noundef @.str.32, ptr noundef @.str.33, ptr noundef @pref_vendor, ptr noundef @pref_hsp_role, i1 noundef zeroext false)
  call void @llvm.lifetime.end.p0(i64 8, ptr %1) #4
  ret void
}