; Function Attrs: null_pointer_is_valid sspstrong uwtable
define hidden void @proto_register_ptpip() local_unnamed_addr #0 {
  %1 = tail call i32 @proto_register_protocol(ptr noundef nonnull @.str.28, ptr noundef nonnull @.str.29, ptr noundef nonnull @.str.30)
  store i32 %1, ptr @proto_ptpIP, align 4
  tail call void @proto_register_field_array(i32 noundef %1, ptr noundef nonnull @proto_register_ptpip.hf, i32 noundef 14)
  tail call void @proto_register_subtree_array(ptr noundef nonnull @proto_register_ptpip.ett, i32 noundef 2)
  %2 = load i32, ptr @proto_ptpIP, align 4
  %3 = tail call ptr @register_dissector(ptr noundef nonnull @.str.30, ptr noundef nonnull @dissect_ptpIP, i32 noundef %2)
  store ptr %3, ptr @ptpIP_handle, align 8
  %4 = load i32, ptr @proto_ptpIP, align 4
  %5 = tail call ptr @prefs_register_protocol(i32 noundef %4, ptr noundef null)
  tail call void @prefs_register_enum_preference(ptr noundef %5, ptr noundef nonnull @.str.31, ptr noundef nonnull @.str.32, ptr noundef nonnull @.str.33, ptr noundef nonnull @pref_vendor, ptr noundef nonnull @pref_hsp_role, i1 noundef zeroext false)
  ret void
}